target datalayout = "e-m:e-p270:32:32-p271:32:32-p272:64:64-i64:64-i128:128-f80:128-n8:16:32:64-S128"
target triple = "x86_64-pc-linux-gnu"

%struct.sinfo_parameters = type { i8, ptr, i32, ptr, i32, i8, i8, i8, i8, i8, i8, i8, i8, i8, i8, i8, i8, i8, i8, i8, i8, i8, i64, ptr, ptr, ptr, ptr, ptr, ptr, ptr, i32, i32, i32, i32, ptr, ptr, ptr, i8, ptr }
%union.pthread_mutex_t = type { %struct.__pthread_mutex_s }
%struct.__pthread_mutex_s = type { i32, i32, i32, i32, i32, i16, i16, %struct.__pthread_internal_list }
%struct.__pthread_internal_list = type { ptr, ptr }
%struct.slurmdb_cluster_rec = type { ptr, i16, i64, %struct.sockaddr_storage, ptr, i32, i16, ptr, i16, %struct.slurmdb_cluster_fed_t, i32, %union.pthread_mutex_t, ptr, ptr, ptr, i16, ptr, ptr }
%struct.sockaddr_storage = type { i16, [118 x i8], i64 }
%struct.slurmdb_cluster_fed_t = type { ptr, i32, ptr, ptr, ptr, i32, i8, i8 }
%struct.sinfo_data_t = type { i16, i32, i32, i32, i32, i32, i32, i32, i32, i32, i32, i32, i32, i32, i32, i32, i32, i32, i32, i32, i64, i64, i32, i32, i32, i32, i64, i64, i32, i64, ptr, ptr, ptr, ptr, ptr, ptr, ptr, ptr, i64, ptr, i32, ptr, ptr, i64, ptr, ptr, ptr, ptr, i16 }
%struct.load_info_struct = type { ptr, ptr, ptr, ptr }

@params = dso_local global %struct.sinfo_parameters zeroinitializer, align 8
@.str.16 = private unnamed_addr constant [22 x i8] c"slurm_load_partitions\00", align 1
@.str.17 = private unnamed_addr constant [16 x i8] c"slurm_load_node\00", align 1

; Function Attrs: nounwind uwtable
define internal ptr @_load_job_prio_thread(ptr noundef %0) #0 {
  %2 = alloca ptr, align 8
  %3 = alloca ptr, align 8
  %4 = alloca ptr, align 8
  %5 = alloca i16, align 2
  %6 = alloca ptr, align 8
  %7 = alloca ptr, align 8
  %8 = alloca i32, align 4
  %9 = alloca ptr, align 8
  %10 = alloca ptr, align 8
  %11 = alloca ptr, align 8
  %12 = alloca i32, align 4
  %13 = alloca ptr, align 8
  %14 = alloca ptr, align 8
  store ptr %0, ptr %3, align 8
  call void @llvm.lifetime.start.p0(i64 8, ptr %4) #9
  %15 = load ptr, ptr %3, align 8
  store ptr %15, ptr %4, align 8
  call void @llvm.lifetime.start.p0(i64 2, ptr %5) #9
  store i16 8, ptr %5, align 2
  call void @llvm.lifetime.start.p0(i64 8, ptr %6) #9
  store ptr null, ptr %6, align 8
  call void @llvm.lifetime.start.p0(i64 8, ptr %7) #9
  %16 = load ptr, ptr %4, align 8
  %17 = getelementptr inbounds nuw %struct.load_info_struct, ptr %16, i32 0, i32 0
  %18 = load ptr, ptr %17, align 8
  store ptr %18, ptr %7, align 8
  call void @llvm.lifetime.start.p0(i64 4, ptr %8) #9
  call void @llvm.lifetime.start.p0(i64 8, ptr %9) #9
  call void @llvm.lifetime.start.p0(i64 8, ptr %10) #9
  call void @llvm.lifetime.start.p0(i64 8, ptr %11) #9
  store ptr null, ptr %11, align 8
  %19 = load i8, ptr getelementptr inbounds nuw (%struct.sinfo_parameters, ptr @params, i32 0, i32 16), align 1, !range !8, !noundef !9
  %20 = trunc i8 %19 to i1
  br i1 %20, label %21, label %23

21:                                               ; preds = %1
  %22 = load ptr, ptr getelementptr inbounds nuw (%struct.sinfo_parameters, ptr @params, i32 0, i32 26), align 8
  store ptr %22, ptr %6, align 8
  br label %23

23:                                               ; preds = %21, %1
  %24 = load i8, ptr @params, align 8, !range !8, !noundef !9
  %25 = trunc i8 %24 to i1
  br i1 %25, label %26, label %31

26:                                               ; preds = %23
  %27 = load i16, ptr %5, align 2
  %28 = zext i16 %27 to i64
  %29 = or i64 %28, 1
  %30 = trunc i64 %29 to i16
  store i16 %30, ptr %5, align 2
  br label %31

31:                                               ; preds = %26, %23
  %32 = load i8, ptr getelementptr inbounds nuw (%struct.sinfo_parameters, ptr @params, i32 0, i32 9), align 8, !range !8, !noundef !9
  %33 = trunc i8 %32 to i1
  br i1 %33, label %34, label %39

34:                                               ; preds = %31
  %35 = load i16, ptr %5, align 2
  %36 = zext i16 %35 to i64
  %37 = or i64 %36, 128
  %38 = trunc i64 %37 to i16
  store i16 %38, ptr %5, align 2
  br label %39

39:                                               ; preds = %34, %31
  %40 = load i16, ptr %5, align 2
  %41 = load ptr, ptr %7, align 8
  %42 = call i32 @slurm_load_partitions2(i64 noundef 0, ptr noundef %9, i16 noundef zeroext %40, ptr noundef %41)
  store i32 %42, ptr %8, align 4
  %43 = load i32, ptr %8, align 4
  %44 = icmp ne i32 %43, 0
  br i1 %44, label %45, label %46

45:                                               ; preds = %39
  call void @slurm_perror(ptr noundef @.str.16)
  call void @slurm_xfree(ptr noundef %3)
  store ptr null, ptr %2, align 8
  store i32 1, ptr %12, align 4
  br label %107

46:                                               ; preds = %39
  %47 = load ptr, ptr %4, align 8
  %48 = getelementptr inbounds nuw %struct.load_info_struct, ptr %47, i32 0, i32 2
  %49 = load ptr, ptr %48, align 8
  %50 = load ptr, ptr %9, align 8
  call void @list_append(ptr noundef %49, ptr noundef %50)
  %51 = load ptr, ptr %6, align 8
  %52 = icmp ne ptr %51, null
  br i1 %52, label %53, label %58

53:                                               ; preds = %46
  %54 = load ptr, ptr %6, align 8
  %55 = load i16, ptr %5, align 2
  %56 = load ptr, ptr %7, align 8
  %57 = call i32 @slurm_load_node_single2(ptr noundef %10, ptr noundef %54, i16 noundef zeroext %55, ptr noundef %56)
  store i32 %57, ptr %8, align 4
  br label %62

58:                                               ; preds = %46
  %59 = load i16, ptr %5, align 2
  %60 = load ptr, ptr %7, align 8
  %61 = call i32 @slurm_load_node2(i64 noundef 0, ptr noundef %10, i16 noundef zeroext %59, ptr noundef %60)
  store i32 %61, ptr %8, align 4
  br label %62

62:                                               ; preds = %58, %53
  %63 = load i32, ptr %8, align 4
  %64 = icmp ne i32 %63, 0
  br i1 %64, label %65, label %66

65:                                               ; preds = %62
  call void @slurm_perror(ptr noundef @.str.17)
  call void @slurm_xfree(ptr noundef %3)
  store ptr null, ptr %2, align 8
  store i32 1, ptr %12, align 4
  br label %107

66:                                               ; preds = %62
  %67 = load ptr, ptr %4, align 8
  %68 = getelementptr inbounds nuw %struct.load_info_struct, ptr %67, i32 0, i32 1
  %69 = load ptr, ptr %68, align 8
  %70 = load ptr, ptr %10, align 8
  call void @list_append(ptr noundef %69, ptr noundef %70)
  %71 = call ptr @list_create(ptr noundef @_sinfo_list_delete)
  store ptr %71, ptr %11, align 8
  %72 = load ptr, ptr %11, align 8
  %73 = load ptr, ptr %9, align 8
  %74 = load ptr, ptr %10, align 8
  %75 = call i32 @_build_sinfo_data(ptr noundef %72, ptr noundef %73, ptr noundef %74)
  %76 = load ptr, ptr %11, align 8
  %77 = icmp ne ptr %76, null
  br i1 %77, label %78, label %106

78:                                               ; preds = %66
  call void @llvm.lifetime.start.p0(i64 8, ptr %13) #9
  call void @llvm.lifetime.start.p0(i64 8, ptr %14) #9
  %79 = load ptr, ptr %11, align 8
  %80 = call ptr @list_iterator_create(ptr noundef %79)
  store ptr %80, ptr %14, align 8
  br label %81

81:                                               ; preds = %85, %78
  %82 = load ptr, ptr %14, align 8
  %83 = call ptr @list_next(ptr noundef %82)
  store ptr %83, ptr %13, align 8
  %84 = icmp ne ptr %83, null
  br i1 %84, label %85, label %91

85:                                               ; preds = %81
  %86 = load ptr, ptr %7, align 8
  %87 = getelementptr inbounds nuw %struct.slurmdb_cluster_rec, ptr %86, i32 0, i32 12
  %88 = load ptr, ptr %87, align 8
  %89 = load ptr, ptr %13, align 8
  %90 = getelementptr inbounds nuw %struct.sinfo_data_t, ptr %89, i32 0, i32 34
  store ptr %88, ptr %90, align 8
  br label %81, !llvm.loop !19

91:                                               ; preds = %81
  %92 = load ptr, ptr %14, align 8
  call void @list_iterator_destroy(ptr noundef %92)
  %93 = load ptr, ptr %4, align 8
  %94 = getelementptr inbounds nuw %struct.load_info_struct, ptr %93, i32 0, i32 3
  %95 = load ptr, ptr %94, align 8
  %96 = load ptr, ptr %11, align 8
  %97 = call i32 @list_transfer(ptr noundef %95, ptr noundef %96)
  br label %98

98:                                               ; preds = %91
  %99 = load ptr, ptr %11, align 8
  %100 = icmp ne ptr %99, null
  br i1 %100, label %101, label %103

101:                                              ; preds = %98
  %102 = load ptr, ptr %11, align 8
  call void @list_destroy(ptr noundef %102)
  br label %103

103:                                              ; preds = %101, %98
  store ptr null, ptr %11, align 8
  br label %104

104:                                              ; preds = %103
  br label %105

105:                                              ; preds = %104
  call void @llvm.lifetime.end.p0(i64 8, ptr %14) #9
  call void @llvm.lifetime.end.p0(i64 8, ptr %13) #9
  br label %106

106:                                              ; preds = %105, %66
  call void @slurm_xfree(ptr noundef %3)
  store ptr null, ptr %2, align 8
  store i32 1, ptr %12, align 4
  br label %107

107:                                              ; preds = %106, %65, %45
  call void @llvm.lifetime.end.p0(i64 8, ptr %11) #9
  call void @llvm.lifetime.end.p0(i64 8, ptr %10) #9
  call void @llvm.lifetime.end.p0(i64 8, ptr %9) #9
  call void @llvm.lifetime.end.p0(i64 4, ptr %8) #9
  call void @llvm.lifetime.end.p0(i64 8, ptr %7) #9
  call void @llvm.lifetime.end.p0(i64 8, ptr %6) #9
  call void @llvm.lifetime.end.p0(i64 2, ptr %5) #9
  call void @llvm.lifetime.end.p0(i64 8, ptr %4) #9
  %108 = load ptr, ptr %2, align 8
  ret ptr %108
}