; Function Attrs: nounwind uwtable
define internal noalias noundef ptr @_load_job_prio_thread(ptr noundef %0) #5 {
  %2 = alloca ptr, align 8
  %3 = alloca ptr, align 8
  %4 = alloca ptr, align 8
  store ptr %0, ptr %2, align 8
  %5 = load ptr, ptr %0, align 8
  call void @llvm.lifetime.start.p0(i64 8, ptr nonnull %3) #13
  call void @llvm.lifetime.start.p0(i64 8, ptr nonnull %4) #13
  %6 = load i8, ptr getelementptr inbounds nuw (i8, ptr @params, i64 47), align 1, !range !8, !noundef !9
  %7 = trunc nuw i8 %6 to i1
  %8 = load ptr, ptr getelementptr inbounds nuw (i8, ptr @params, i64 88), align 8
  %spec.select = select i1 %7, ptr %8, ptr null
  %9 = load i8, ptr @params, align 8, !range !8, !noundef !9
  %10 = trunc nuw i8 %9 to i1
  %.026 = select i1 %10, i16 9, i16 8
  %11 = load i8, ptr getelementptr inbounds nuw (i8, ptr @params, i64 40), align 8, !range !8, !noundef !9
  %12 = trunc nuw i8 %11 to i1
  %13 = or disjoint i16 %.026, 128
  %.1 = select i1 %12, i16 %13, i16 %.026
  %14 = call i32 @slurm_load_partitions2(i64 noundef 0, ptr noundef nonnull %3, i16 noundef zeroext %.1, ptr noundef %5) #13
  %.not = icmp eq i32 %14, 0
  br i1 %.not, label %16, label %15

15:                                               ; preds = %1
  call void @slurm_perror(ptr noundef nonnull @.str.16) #13
  br label %45

16:                                               ; preds = %1
  %17 = getelementptr inbounds nuw i8, ptr %0, i64 16
  %18 = load ptr, ptr %17, align 8
  %19 = load ptr, ptr %3, align 8
  call void @list_append(ptr noundef %18, ptr noundef %19) #13
  %.not30 = icmp eq ptr %spec.select, null
  br i1 %.not30, label %22, label %20

20:                                               ; preds = %16
  %21 = call i32 @slurm_load_node_single2(ptr noundef nonnull %4, ptr noundef nonnull %spec.select, i16 noundef zeroext %.1, ptr noundef %5) #13
  br label %24

22:                                               ; preds = %16
  %23 = call i32 @slurm_load_node2(i64 noundef 0, ptr noundef nonnull %4, i16 noundef zeroext %.1, ptr noundef %5) #13
  br label %24

24:                                               ; preds = %22, %20
  %.027 = phi i32 [ %21, %20 ], [ %23, %22 ]
  %.not31 = icmp eq i32 %.027, 0
  br i1 %.not31, label %26, label %25

25:                                               ; preds = %24
  call void @slurm_perror(ptr noundef nonnull @.str.17) #13
  br label %45

26:                                               ; preds = %24
  %27 = getelementptr inbounds nuw i8, ptr %0, i64 8
  %28 = load ptr, ptr %27, align 8
  %29 = load ptr, ptr %4, align 8
  call void @list_append(ptr noundef %28, ptr noundef %29) #13
  %30 = call ptr @list_create(ptr noundef nonnull @_sinfo_list_delete) #13
  %31 = load ptr, ptr %3, align 8
  %32 = load ptr, ptr %4, align 8
  call fastcc void @_build_sinfo_data(ptr noundef %30, ptr noundef %31, ptr noundef %32)
  %.not32 = icmp eq ptr %30, null
  br i1 %.not32, label %45, label %33

33:                                               ; preds = %26
  %34 = call ptr @list_iterator_create(ptr noundef nonnull %30) #13
  %35 = call ptr @list_next(ptr noundef %34) #13
  %.not3334 = icmp eq ptr %35, null
  br i1 %.not3334, label %._crit_edge, label %.lr.ph

.lr.ph:                                           ; preds = %33
  %36 = getelementptr inbounds nuw i8, ptr %5, i64 280
  br label %37

37:                                               ; preds = %.lr.ph, %37
  %38 = phi ptr [ %35, %.lr.ph ], [ %41, %37 ]
  %39 = load ptr, ptr %36, align 8
  %40 = getelementptr inbounds nuw i8, ptr %38, i64 176
  store ptr %39, ptr %40, align 8
  %41 = call ptr @list_next(ptr noundef %34) #13
  %.not33 = icmp eq ptr %41, null
  br i1 %.not33, label %._crit_edge, label %37, !llvm.loop !19

._crit_edge:                                      ; preds = %37, %33
  call void @list_iterator_destroy(ptr noundef %34) #13
  %42 = getelementptr inbounds nuw i8, ptr %0, i64 24
  %43 = load ptr, ptr %42, align 8
  %44 = call i32 @list_transfer(ptr noundef %43, ptr noundef nonnull %30) #13
  call void @list_destroy(ptr noundef nonnull %30) #13
  br label %45

45:                                               ; preds = %26, %._crit_edge, %25, %15
  call void @slurm_xfree(ptr noundef nonnull %2) #13
  call void @llvm.lifetime.end.p0(i64 8, ptr nonnull %4) #13
  call void @llvm.lifetime.end.p0(i64 8, ptr nonnull %3) #13
  ret ptr null
}